target datalayout = "e-m:e-p270:32:32-p271:32:32-p272:64:64-i64:64-i128:128-f80:128-n8:16:32:64-S128"
target triple = "x86_64-pc-linux-gnu"

%struct.rb_data_type_struct = type { ptr, %struct.anon.12, ptr, ptr, i64 }
%struct.anon.12 = type { ptr, ptr, ptr, ptr, [1 x ptr] }
%struct.rb_code_location_struct = type { %struct.rb_code_position_struct, %struct.rb_code_position_struct }
%struct.rb_code_position_struct = type { i32, i32 }
%struct.ASTNodeData = type { i64, ptr }
%struct.RNode = type { i64, %struct.rb_code_location_struct, i32 }
%struct.RBasic = type { i64, i64 }
%struct.RArray = type { %struct.RBasic, %union.anon.27 }
%union.anon.27 = type { %struct.anon.28 }
%struct.anon.28 = type { i64, %union.anon.29, ptr }
%union.anon.29 = type { i64 }

@rb_cNode = internal global i64 0, align 8
@rb_node_type = internal constant %struct.rb_data_type_struct { ptr @.str.24, %struct.anon.12 { ptr @node_gc_mark, ptr inttoptr (i64 -1 to ptr), ptr @node_memsize, ptr null, [1 x ptr] zeroinitializer }, ptr null, ptr null, i64 1 }, align 8
@rb_cFalseClass = external global i64, align 8
@rb_cNilClass = external global i64, align 8
@rb_cTrueClass = external global i64, align 8
@rb_cInteger = external global i64, align 8
@rb_cSymbol = external global i64, align 8
@rb_cFloat = external global i64, align 8

; Function Attrs: inlinehint nounwind sspstrong willreturn memory(none) uwtable
define internal zeroext i1 @RB_IMMEDIATE_P(i64 noundef %0) #3 {
  %2 = alloca i64, align 8
  store i64 %0, ptr %2, align 8, !tbaa !12
  %3 = load i64, ptr %2, align 8, !tbaa !12
  %4 = and i64 %3, 7
  %5 = icmp ne i64 %4, 0
  ret i1 %5
}

; Function Attrs: inlinehint nounwind sspstrong willreturn memory(read) uwtable
define internal i64 @RB_FL_TEST_RAW(i64 noundef %0, i64 noundef %1) #8 {
  %3 = alloca i64, align 8
  %4 = alloca i64, align 8
  store i64 %0, ptr %3, align 8, !tbaa !12
  store i64 %1, ptr %4, align 8, !tbaa !12
  %5 = load i64, ptr %3, align 8, !tbaa !12
  %6 = inttoptr i64 %5 to ptr
  %7 = getelementptr inbounds nuw %struct.RBasic, ptr %6, i32 0, i32 0
  %8 = load i64, ptr %7, align 8, !tbaa !127
  %9 = load i64, ptr %4, align 8, !tbaa !12
  %10 = and i64 %8, %9
  ret i64 %10
}

; Function Attrs: inlinehint nounwind sspstrong willreturn memory(none) uwtable
define internal zeroext i1 @RB_FLONUM_P(i64 noundef %0) #3 {
  %2 = alloca i64, align 8
  store i64 %0, ptr %2, align 8, !tbaa !12
  %3 = load i64, ptr %2, align 8, !tbaa !12
  %4 = and i64 %3, 3
  %5 = icmp eq i64 %4, 2
  ret i1 %5
}

; Function Attrs: inlinehint nounwind sspstrong willreturn memory(none) uwtable
define internal zeroext i1 @RB_STATIC_SYM_P(i64 noundef %0) #3 {
  %2 = alloca i64, align 8
  %3 = alloca i64, align 8
  store i64 %0, ptr %2, align 8, !tbaa !12
  call void @llvm.lifetime.start.p0(i64 8, ptr %3) #16
  store i64 255, ptr %3, align 8, !tbaa !12
  %4 = load i64, ptr %2, align 8, !tbaa !12
  %5 = and i64 %4, 255
  %6 = icmp eq i64 %5, 12
  call void @llvm.lifetime.end.p0(i64 8, ptr %3) #16
  ret i1 %6
}

; Function Attrs: inlinehint nounwind sspstrong willreturn memory(none) uwtable
define internal zeroext i1 @RB_FIXNUM_P(i64 noundef %0) #3 {
  %2 = alloca i64, align 8
  store i64 %0, ptr %2, align 8, !tbaa !12
  %3 = load i64, ptr %2, align 8, !tbaa !12
  %4 = and i64 %3, 1
  %5 = icmp ne i64 %4, 0
  ret i1 %5
}

; Function Attrs: inlinehint nounwind sspstrong willreturn memory(read) uwtable
define internal i64 @RBASIC_CLASS(i64 noundef %0) #8 {
  %2 = alloca i64, align 8
  store i64 %0, ptr %2, align 8, !tbaa !12
  %3 = load i64, ptr %2, align 8, !tbaa !12
  %4 = inttoptr i64 %3 to ptr
  %5 = getelementptr inbounds nuw %struct.RBasic, ptr %4, i32 0, i32 1
  %6 = load i64, ptr %5, align 8, !tbaa !396
  ret i64 %6
}

; Function Attrs: inlinehint nounwind sspstrong willreturn memory(none) uwtable
define internal zeroext i1 @RB_SPECIAL_CONST_P(i64 noundef %0) #3 {
  %2 = alloca i64, align 8
  store i64 %0, ptr %2, align 8, !tbaa !12
  %3 = load i64, ptr %2, align 8, !tbaa !12
  %4 = icmp eq i64 %3, 0
  br i1 %4, label %8, label %5

5:                                                ; preds = %1
  %6 = load i64, ptr %2, align 8, !tbaa !12
  %7 = call zeroext i1 @RB_IMMEDIATE_P(i64 noundef %6) #19
  br label %8

8:                                                ; preds = %5, %1
  %9 = phi i1 [ true, %1 ], [ %7, %5 ]
  ret i1 %9
}

; Function Attrs: inlinehint nounwind sspstrong willreturn memory(read) uwtable
define internal ptr @rb_array_const_ptr(i64 noundef %0) #8 {
  %2 = alloca ptr, align 8
  %3 = alloca i64, align 8
  store i64 %0, ptr %3, align 8, !tbaa !12
  %4 = load i64, ptr %3, align 8, !tbaa !12
  %5 = call zeroext i1 @RB_FL_ANY_RAW(i64 noundef %4, i64 noundef 8192) #18
  br i1 %5, label %6, label %11

6:                                                ; preds = %1
  %7 = load i64, ptr %3, align 8, !tbaa !12
  %8 = inttoptr i64 %7 to ptr
  %9 = getelementptr inbounds nuw %struct.RArray, ptr %8, i32 0, i32 1
  %10 = getelementptr inbounds [1 x i64], ptr %9, i64 0, i64 0
  store ptr %10, ptr %2, align 8
  br label %17

11:                                               ; preds = %1
  %12 = load i64, ptr %3, align 8, !tbaa !12
  %13 = inttoptr i64 %12 to ptr
  %14 = getelementptr inbounds nuw %struct.RArray, ptr %13, i32 0, i32 1
  %15 = getelementptr inbounds nuw %struct.anon.28, ptr %14, i32 0, i32 2
  %16 = load ptr, ptr %15, align 8, !tbaa !121
  store ptr %16, ptr %2, align 8
  br label %17

17:                                               ; preds = %11, %6
  %18 = load ptr, ptr %2, align 8
  ret ptr %18
}

; Function Attrs: inlinehint nounwind sspstrong willreturn memory(read) uwtable
define internal i64 @RARRAY_EMBED_LEN(i64 noundef %0) #8 {
  %2 = alloca i64, align 8
  %3 = alloca i64, align 8
  store i64 %0, ptr %2, align 8, !tbaa !12
  call void @llvm.lifetime.start.p0(i64 8, ptr %3) #16
  %4 = load i64, ptr %2, align 8, !tbaa !12
  %5 = inttoptr i64 %4 to ptr
  %6 = getelementptr inbounds nuw %struct.RBasic, ptr %5, i32 0, i32 0
  %7 = load i64, ptr %6, align 8, !tbaa !127
  store i64 %7, ptr %3, align 8, !tbaa !12
  %8 = load i64, ptr %3, align 8, !tbaa !12
  %9 = and i64 %8, 4161536
  store i64 %9, ptr %3, align 8, !tbaa !12
  %10 = load i64, ptr %3, align 8, !tbaa !12
  %11 = lshr i64 %10, 15
  store i64 %11, ptr %3, align 8, !tbaa !12
  %12 = load i64, ptr %3, align 8, !tbaa !12
  call void @llvm.lifetime.end.p0(i64 8, ptr %3) #16
  ret i64 %12
}

; Function Attrs: inlinehint nounwind sspstrong willreturn memory(read) uwtable
define internal zeroext i1 @RB_FL_ANY_RAW(i64 noundef %0, i64 noundef %1) #8 {
  %3 = alloca i64, align 8
  %4 = alloca i64, align 8
  store i64 %0, ptr %3, align 8, !tbaa !12
  store i64 %1, ptr %4, align 8, !tbaa !12
  %5 = load i64, ptr %3, align 8, !tbaa !12
  %6 = load i64, ptr %4, align 8, !tbaa !12
  %7 = call i64 @RB_FL_TEST_RAW(i64 noundef %5, i64 noundef %6) #18
  %8 = icmp ne i64 %7, 0
  ret i1 %8
}

; Function Attrs: inlinehint nounwind sspstrong willreturn memory(none) uwtable
define internal zeroext i1 @RB_TEST(i64 noundef %0) #3 {
  %2 = alloca i64, align 8
  store i64 %0, ptr %2, align 8, !tbaa !12
  %3 = load i64, ptr %2, align 8, !tbaa !12
  %4 = and i64 %3, -5
  %5 = icmp ne i64 %4, 0
  ret i1 %5
}

; Function Attrs: inlinehint nounwind sspstrong willreturn memory(read) uwtable
define internal i64 @rb_class_of(i64 noundef %0) #8 {
  %2 = alloca i64, align 8
  %3 = alloca i64, align 8
  store i64 %0, ptr %3, align 8, !tbaa !12
  %4 = load i64, ptr %3, align 8, !tbaa !12
  %5 = call zeroext i1 @RB_SPECIAL_CONST_P(i64 noundef %4) #19
  br i1 %5, label %9, label %6

6:                                                ; preds = %1
  %7 = load i64, ptr %3, align 8, !tbaa !12
  %8 = call i64 @RBASIC_CLASS(i64 noundef %7) #18
  store i64 %8, ptr %2, align 8
  br label %46

9:                                                ; preds = %1
  %10 = load i64, ptr %3, align 8, !tbaa !12
  %11 = icmp eq i64 %10, 0
  br i1 %11, label %12, label %14

12:                                               ; preds = %9
  %13 = load i64, ptr @rb_cFalseClass, align 8, !tbaa !12
  store i64 %13, ptr %2, align 8
  br label %46

14:                                               ; preds = %9
  %15 = load i64, ptr %3, align 8, !tbaa !12
  %16 = icmp eq i64 %15, 4
  br i1 %16, label %17, label %19

17:                                               ; preds = %14
  %18 = load i64, ptr @rb_cNilClass, align 8, !tbaa !12
  store i64 %18, ptr %2, align 8
  br label %46

19:                                               ; preds = %14
  %20 = load i64, ptr %3, align 8, !tbaa !12
  %21 = icmp eq i64 %20, 20
  br i1 %21, label %22, label %24

22:                                               ; preds = %19
  %23 = load i64, ptr @rb_cTrueClass, align 8, !tbaa !12
  store i64 %23, ptr %2, align 8
  br label %46

24:                                               ; preds = %19
  %25 = load i64, ptr %3, align 8, !tbaa !12
  %26 = call zeroext i1 @RB_FIXNUM_P(i64 noundef %25) #19
  br i1 %26, label %27, label %29

27:                                               ; preds = %24
  %28 = load i64, ptr @rb_cInteger, align 8, !tbaa !12
  store i64 %28, ptr %2, align 8
  br label %46

29:                                               ; preds = %24
  %30 = load i64, ptr %3, align 8, !tbaa !12
  %31 = call zeroext i1 @RB_STATIC_SYM_P(i64 noundef %30) #19
  br i1 %31, label %32, label %34

32:                                               ; preds = %29
  %33 = load i64, ptr @rb_cSymbol, align 8, !tbaa !12
  store i64 %33, ptr %2, align 8
  br label %46

34:                                               ; preds = %29
  %35 = load i64, ptr %3, align 8, !tbaa !12
  %36 = call zeroext i1 @RB_FLONUM_P(i64 noundef %35) #19
  br i1 %36, label %37, label %39

37:                                               ; preds = %34
  %38 = load i64, ptr @rb_cFloat, align 8, !tbaa !12
  store i64 %38, ptr %2, align 8
  br label %46

39:                                               ; preds = %34
  br label %40

40:                                               ; preds = %39
  br label %41

41:                                               ; preds = %40
  br label %42

42:                                               ; preds = %41
  br label %43

43:                                               ; preds = %42
  br label %44

44:                                               ; preds = %43
  br label %45

45:                                               ; preds = %44
  unreachable

46:                                               ; preds = %37, %32, %27, %22, %17, %12, %6
  %47 = load i64, ptr %2, align 8
  ret i64 %47
}

; Function Attrs: inlinehint nounwind sspstrong willreturn memory(read) uwtable
define internal i64 @RARRAY_AREF(i64 noundef %0, i64 noundef %1) #8 {
  %3 = alloca i64, align 8
  %4 = alloca i64, align 8
  %5 = alloca i64, align 8
  store i64 %0, ptr %3, align 8, !tbaa !12
  store i64 %1, ptr %4, align 8, !tbaa !12
  call void @llvm.lifetime.start.p0(i64 8, ptr %5) #16
  %6 = load i64, ptr %3, align 8, !tbaa !12
  %7 = call ptr @rb_array_const_ptr(i64 noundef %6) #18
  %8 = load i64, ptr %4, align 8, !tbaa !12
  %9 = getelementptr i64, ptr %7, i64 %8
  %10 = load i64, ptr %9, align 8, !tbaa !12
  store i64 %10, ptr %5, align 8, !tbaa !12
  %11 = load i64, ptr %5, align 8, !tbaa !12
  call void @llvm.lifetime.end.p0(i64 8, ptr %5) #16
  ret i64 %11
}

; Function Attrs: inlinehint nounwind sspstrong willreturn memory(read) uwtable
define internal i64 @rb_array_len(i64 noundef %0) #8 {
  %2 = alloca i64, align 8
  %3 = alloca i64, align 8
  store i64 %0, ptr %3, align 8, !tbaa !12
  %4 = load i64, ptr %3, align 8, !tbaa !12
  %5 = call zeroext i1 @RB_FL_ANY_RAW(i64 noundef %4, i64 noundef 8192) #18
  br i1 %5, label %6, label %9

6:                                                ; preds = %1
  %7 = load i64, ptr %3, align 8, !tbaa !12
  %8 = call i64 @RARRAY_EMBED_LEN(i64 noundef %7) #18
  store i64 %8, ptr %2, align 8
  br label %15

9:                                                ; preds = %1
  %10 = load i64, ptr %3, align 8, !tbaa !12
  %11 = inttoptr i64 %10 to ptr
  %12 = getelementptr inbounds nuw %struct.RArray, ptr %11, i32 0, i32 1
  %13 = getelementptr inbounds nuw %struct.anon.28, ptr %12, i32 0, i32 0
  %14 = load i64, ptr %13, align 8, !tbaa !121
  store i64 %14, ptr %2, align 8
  br label %15

15:                                               ; preds = %9, %6
  %16 = load i64, ptr %2, align 8
  ret i64 %16
}

; Function Attrs: nounwind sspstrong uwtable
define internal i64 @node_find(i64 noundef %0, i32 noundef %1) #0 {
  %3 = alloca i64, align 8
  %4 = alloca i64, align 8
  %5 = alloca i32, align 4
  %6 = alloca i64, align 8
  %7 = alloca i64, align 8
  %8 = alloca ptr, align 8
  %9 = alloca i32, align 4
  %10 = alloca i64, align 8
  %11 = alloca i64, align 8
  store i64 %0, ptr %4, align 8, !tbaa !12
  store i32 %1, ptr %5, align 4, !tbaa !16
  call void @llvm.lifetime.start.p0(i64 8, ptr %6) #16
  call void @llvm.lifetime.start.p0(i64 8, ptr %7) #16
  call void @llvm.lifetime.start.p0(i64 8, ptr %8) #16
  %12 = load i64, ptr %4, align 8, !tbaa !12
  %13 = call ptr @rb_check_typeddata(i64 noundef %12, ptr noundef @rb_node_type)
  store ptr %13, ptr %8, align 8, !tbaa !44
  %14 = load ptr, ptr %8, align 8, !tbaa !44
  %15 = getelementptr inbounds nuw %struct.ASTNodeData, ptr %14, i32 0, i32 1
  %16 = load ptr, ptr %15, align 8, !tbaa !46
  %17 = getelementptr inbounds nuw %struct.RNode, ptr %16, i32 0, i32 2
  %18 = load i32, ptr %17, align 8, !tbaa !90
  %19 = load i32, ptr %5, align 4, !tbaa !16
  %20 = icmp eq i32 %18, %19
  br i1 %20, label %21, label %23

21:                                               ; preds = %2
  %22 = load i64, ptr %4, align 8, !tbaa !12
  store i64 %22, ptr %3, align 8
  store i32 1, ptr %9, align 4
  br label %64

23:                                               ; preds = %2
  %24 = load ptr, ptr %8, align 8, !tbaa !44
  %25 = getelementptr inbounds nuw %struct.ASTNodeData, ptr %24, i32 0, i32 0
  %26 = load i64, ptr %25, align 8, !tbaa !54
  %27 = load ptr, ptr %8, align 8, !tbaa !44
  %28 = getelementptr inbounds nuw %struct.ASTNodeData, ptr %27, i32 0, i32 1
  %29 = load ptr, ptr %28, align 8, !tbaa !46
  %30 = call i64 @node_children(i64 noundef %26, ptr noundef %29)
  store i64 %30, ptr %6, align 8, !tbaa !12
  store i64 0, ptr %7, align 8, !tbaa !12
  br label %31

31:                                               ; preds = %60, %23
  %32 = load i64, ptr %7, align 8, !tbaa !12
  %33 = load i64, ptr %6, align 8, !tbaa !12
  %34 = call i64 @rb_array_len(i64 noundef %33) #18
  %35 = icmp slt i64 %32, %34
  br i1 %35, label %36, label %63

36:                                               ; preds = %31
  call void @llvm.lifetime.start.p0(i64 8, ptr %10) #16
  %37 = load i64, ptr %6, align 8, !tbaa !12
  %38 = load i64, ptr %7, align 8, !tbaa !12
  %39 = call i64 @RARRAY_AREF(i64 noundef %37, i64 noundef %38) #18
  store i64 %39, ptr %10, align 8, !tbaa !12
  %40 = load i64, ptr %10, align 8, !tbaa !12
  %41 = call i64 @rb_class_of(i64 noundef %40) #18
  %42 = load i64, ptr @rb_cNode, align 8, !tbaa !12
  %43 = icmp eq i64 %41, %42
  br i1 %43, label %44, label %56

44:                                               ; preds = %36
  call void @llvm.lifetime.start.p0(i64 8, ptr %11) #16
  %45 = load i64, ptr %10, align 8, !tbaa !12
  %46 = load i32, ptr %5, align 4, !tbaa !16
  %47 = call i64 @node_find(i64 noundef %45, i32 noundef %46)
  store i64 %47, ptr %11, align 8, !tbaa !12
  %48 = load i64, ptr %11, align 8, !tbaa !12
  %49 = call zeroext i1 @RB_TEST(i64 noundef %48) #19
  br i1 %49, label %50, label %52

50:                                               ; preds = %44
  %51 = load i64, ptr %11, align 8, !tbaa !12
  store i64 %51, ptr %3, align 8
  store i32 1, ptr %9, align 4
  br label %53

52:                                               ; preds = %44
  store i32 0, ptr %9, align 4
  br label %53

53:                                               ; preds = %52, %50
  call void @llvm.lifetime.end.p0(i64 8, ptr %11) #16
  %54 = load i32, ptr %9, align 4
  switch i32 %54, label %57 [
    i32 0, label %55
  ]

55:                                               ; preds = %53
  br label %56

56:                                               ; preds = %55, %36
  store i32 0, ptr %9, align 4
  br label %57

57:                                               ; preds = %56, %53
  call void @llvm.lifetime.end.p0(i64 8, ptr %10) #16
  %58 = load i32, ptr %9, align 4
  switch i32 %58, label %64 [
    i32 0, label %59
  ]

59:                                               ; preds = %57
  br label %60

60:                                               ; preds = %59
  %61 = load i64, ptr %7, align 8, !tbaa !12
  %62 = add i64 %61, 1
  store i64 %62, ptr %7, align 8, !tbaa !12
  br label %31, !llvm.loop !122

63:                                               ; preds = %31
  store i64 4, ptr %3, align 8
  store i32 1, ptr %9, align 4
  br label %64

64:                                               ; preds = %63, %57, %21
  call void @llvm.lifetime.end.p0(i64 8, ptr %8) #16
  call void @llvm.lifetime.end.p0(i64 8, ptr %7) #16
  call void @llvm.lifetime.end.p0(i64 8, ptr %6) #16
  %65 = load i64, ptr %3, align 8
  ret i64 %65
}