; Function Attrs: nounwind sspstrong uwtable
define internal fastcc i64 @node_find(i64 noundef %0, i32 noundef %1) unnamed_addr #0 {
  %3 = tail call ptr @rb_check_typeddata(i64 noundef %0, ptr noundef nonnull @rb_node_type) #11
  %4 = getelementptr inbounds nuw i8, ptr %3, i64 8
  %5 = load ptr, ptr %4, align 8, !tbaa !72
  %6 = getelementptr inbounds nuw i8, ptr %5, i64 24
  %7 = load i32, ptr %6, align 8, !tbaa !105
  %8 = icmp eq i32 %7, %1
  br i1 %8, label %.loopexit, label %9

9:                                                ; preds = %2
  %10 = load i64, ptr %3, align 8, !tbaa !70
  %11 = tail call fastcc i64 @node_children(i64 noundef %10, ptr noundef nonnull %5)
  %12 = inttoptr i64 %11 to ptr
  %13 = getelementptr inbounds nuw i8, ptr %12, i64 16
  %14 = getelementptr inbounds nuw i8, ptr %12, i64 32
  br label %15

15:                                               ; preds = %.thread26, %9
  %.019 = phi i64 [ 0, %9 ], [ %47, %.thread26 ]
  %16 = load i64, ptr %12, align 8, !tbaa !20
  %17 = and i64 %16, 8192
  %.not.i = icmp eq i64 %17, 0
  br i1 %.not.i, label %rb_array_len.exit, label %rb_array_len.exit.thread

rb_array_len.exit:                                ; preds = %15
  %18 = load i64, ptr %13, align 8, !tbaa !18
  %19 = icmp slt i64 %.019, %18
  br i1 %19, label %23, label %.loopexit

rb_array_len.exit.thread:                         ; preds = %15
  %20 = lshr i64 %16, 15
  %21 = and i64 %20, 127
  %22 = icmp samesign ult i64 %.019, %21
  br i1 %22, label %RARRAY_AREF.exit, label %.loopexit

23:                                               ; preds = %rb_array_len.exit
  %24 = load ptr, ptr %14, align 8, !tbaa !18
  br label %RARRAY_AREF.exit

RARRAY_AREF.exit:                                 ; preds = %rb_array_len.exit.thread, %23
  %.0.i.i = phi ptr [ %24, %23 ], [ %13, %rb_array_len.exit.thread ]
  %25 = getelementptr i64, ptr %.0.i.i, i64 %.019
  %26 = load i64, ptr %25, align 8, !tbaa !47
  %27 = icmp eq i64 %26, 0
  %28 = and i64 %26, 7
  %29 = icmp ne i64 %28, 0
  %30 = or i1 %27, %29
  br i1 %30, label %34, label %31

31:                                               ; preds = %RARRAY_AREF.exit
  %32 = inttoptr i64 %26 to ptr
  %33 = getelementptr inbounds nuw i8, ptr %32, i64 8
  br label %rb_class_of.exit

34:                                               ; preds = %RARRAY_AREF.exit
  switch i64 %26, label %37 [
    i64 0, label %rb_class_of.exit
    i64 4, label %35
    i64 20, label %36
  ]

35:                                               ; preds = %34
  br label %rb_class_of.exit

36:                                               ; preds = %34
  br label %rb_class_of.exit

37:                                               ; preds = %34
  %38 = and i64 %26, 1
  %.not.i24 = icmp eq i64 %38, 0
  br i1 %.not.i24, label %39, label %rb_class_of.exit

39:                                               ; preds = %37
  %40 = and i64 %26, 254
  %41 = icmp eq i64 %40, 12
  %spec.select.i = select i1 %41, ptr @rb_cSymbol, ptr @rb_cFloat
  br label %rb_class_of.exit

rb_class_of.exit:                                 ; preds = %31, %34, %35, %36, %37, %39
  %.0.in.i = phi ptr [ @rb_cNilClass, %35 ], [ @rb_cTrueClass, %36 ], [ %33, %31 ], [ @rb_cFalseClass, %34 ], [ @rb_cInteger, %37 ], [ %spec.select.i, %39 ]
  %.0.i23 = load i64, ptr %.0.in.i, align 8, !tbaa !47
  %42 = load i64, ptr @rb_cNode, align 8, !tbaa !47
  %43 = icmp eq i64 %.0.i23, %42
  br i1 %43, label %44, label %.thread26

44:                                               ; preds = %rb_class_of.exit
  %45 = tail call fastcc i64 @node_find(i64 noundef %26, i32 noundef %1)
  %46 = and i64 %45, -5
  %.not = icmp eq i64 %46, 0
  br i1 %.not, label %.thread26, label %.loopexit

.thread26:                                        ; preds = %rb_class_of.exit, %44
  %47 = add nuw nsw i64 %.019, 1
  br label %15, !llvm.loop !113

.loopexit:                                        ; preds = %rb_array_len.exit.thread, %rb_array_len.exit, %44, %2
  %.0 = phi i64 [ %0, %2 ], [ 4, %rb_array_len.exit.thread ], [ 4, %rb_array_len.exit ], [ %45, %44 ]
  ret i64 %.0
}